target datalayout = "e-m:e-p270:32:32-p271:32:32-p272:64:64-i64:64-i128:128-f80:128-n8:16:32:64-S128"
target triple = "x86_64-pc-linux-gnu"

%struct.struct_it8 = type { i32, i32, i32, [255 x %struct._Table], ptr, %struct._SubAllocator, i32, i32, i32, double, ptr, ptr, ptr, ptr, ptr, i32, [20 x ptr], i32, ptr, [128 x i8], ptr }
%struct._Table = type { [1024 x i8], i32, i32, i32, ptr, ptr, ptr }
%struct._SubAllocator = type { ptr, i32, i32 }
%struct._KeyVal = type { ptr, ptr, ptr, ptr, ptr, i32 }

@.str.81 = private unnamed_addr constant [25 x i8] c"Table %d out of sequence\00", align 1

; Function Attrs: nounwind uwtable
define internal i32 @IsAvailableOnList(ptr noundef %0, ptr noundef %1, ptr noundef %2, ptr noundef %3) #0 {
  %5 = alloca i32, align 4
  %6 = alloca ptr, align 8
  %7 = alloca ptr, align 8
  %8 = alloca ptr, align 8
  %9 = alloca ptr, align 8
  store ptr %0, ptr %6, align 8
  store ptr %1, ptr %7, align 8
  store ptr %2, ptr %8, align 8
  store ptr %3, ptr %9, align 8
  %10 = load ptr, ptr %9, align 8
  %11 = icmp ne ptr %10, null
  br i1 %11, label %12, label %15

12:                                               ; preds = %4
  %13 = load ptr, ptr %6, align 8
  %14 = load ptr, ptr %9, align 8
  store ptr %13, ptr %14, align 8
  br label %15

15:                                               ; preds = %12, %4
  br label %16

16:                                               ; preds = %40, %15
  %17 = load ptr, ptr %6, align 8
  %18 = icmp ne ptr %17, null
  br i1 %18, label %19, label %44

19:                                               ; preds = %16
  %20 = load ptr, ptr %9, align 8
  %21 = icmp ne ptr %20, null
  br i1 %21, label %22, label %25

22:                                               ; preds = %19
  %23 = load ptr, ptr %6, align 8
  %24 = load ptr, ptr %9, align 8
  store ptr %23, ptr %24, align 8
  br label %25

25:                                               ; preds = %22, %19
  %26 = load ptr, ptr %7, align 8
  %27 = load i8, ptr %26, align 1
  %28 = sext i8 %27 to i32
  %29 = icmp ne i32 %28, 35
  br i1 %29, label %30, label %39

30:                                               ; preds = %25
  %31 = load ptr, ptr %7, align 8
  %32 = load ptr, ptr %6, align 8
  %33 = getelementptr inbounds %struct._KeyVal, ptr %32, i32 0, i32 1
  %34 = load ptr, ptr %33, align 8
  %35 = call i32 @cmsstrcasecmp(ptr noundef %31, ptr noundef %34)
  %36 = icmp eq i32 %35, 0
  br i1 %36, label %37, label %38

37:                                               ; preds = %30
  br label %44

38:                                               ; preds = %30
  br label %39

39:                                               ; preds = %38, %25
  br label %40

40:                                               ; preds = %39
  %41 = load ptr, ptr %6, align 8
  %42 = getelementptr inbounds %struct._KeyVal, ptr %41, i32 0, i32 0
  %43 = load ptr, ptr %42, align 8
  store ptr %43, ptr %6, align 8
  br label %16, !llvm.loop !11

44:                                               ; preds = %37, %16
  %45 = load ptr, ptr %6, align 8
  %46 = icmp eq ptr %45, null
  br i1 %46, label %47, label %48

47:                                               ; preds = %44
  store i32 0, ptr %5, align 4
  br label %82

48:                                               ; preds = %44
  %49 = load ptr, ptr %8, align 8
  %50 = icmp eq ptr %49, null
  br i1 %50, label %51, label %52

51:                                               ; preds = %48
  store i32 1, ptr %5, align 4
  br label %82

52:                                               ; preds = %48
  br label %53

53:                                               ; preds = %77, %52
  %54 = load ptr, ptr %6, align 8
  %55 = icmp ne ptr %54, null
  br i1 %55, label %56, label %81

56:                                               ; preds = %53
  %57 = load ptr, ptr %6, align 8
  %58 = getelementptr inbounds %struct._KeyVal, ptr %57, i32 0, i32 3
  %59 = load ptr, ptr %58, align 8
  %60 = icmp eq ptr %59, null
  br i1 %60, label %61, label %62

61:                                               ; preds = %56
  br label %77

62:                                               ; preds = %56
  %63 = load ptr, ptr %9, align 8
  %64 = icmp ne ptr %63, null
  br i1 %64, label %65, label %68

65:                                               ; preds = %62
  %66 = load ptr, ptr %6, align 8
  %67 = load ptr, ptr %9, align 8
  store ptr %66, ptr %67, align 8
  br label %68

68:                                               ; preds = %65, %62
  %69 = load ptr, ptr %8, align 8
  %70 = load ptr, ptr %6, align 8
  %71 = getelementptr inbounds %struct._KeyVal, ptr %70, i32 0, i32 3
  %72 = load ptr, ptr %71, align 8
  %73 = call i32 @cmsstrcasecmp(ptr noundef %69, ptr noundef %72)
  %74 = icmp eq i32 %73, 0
  br i1 %74, label %75, label %76

75:                                               ; preds = %68
  store i32 1, ptr %5, align 4
  br label %82

76:                                               ; preds = %68
  br label %77

77:                                               ; preds = %76, %61
  %78 = load ptr, ptr %6, align 8
  %79 = getelementptr inbounds %struct._KeyVal, ptr %78, i32 0, i32 2
  %80 = load ptr, ptr %79, align 8
  store ptr %80, ptr %6, align 8
  br label %53, !llvm.loop !12

81:                                               ; preds = %53
  store i32 0, ptr %5, align 4
  br label %82

82:                                               ; preds = %81, %75, %51, %47
  %83 = load i32, ptr %5, align 4
  ret i32 %83
}

; Function Attrs: nounwind uwtable
define internal ptr @GetTable(ptr noundef %0) #0 {
  %2 = alloca ptr, align 8
  %3 = alloca ptr, align 8
  store ptr %0, ptr %3, align 8
  %4 = load ptr, ptr %3, align 8
  %5 = getelementptr inbounds %struct.struct_it8, ptr %4, i32 0, i32 1
  %6 = load i32, ptr %5, align 4
  %7 = load ptr, ptr %3, align 8
  %8 = getelementptr inbounds %struct.struct_it8, ptr %7, i32 0, i32 0
  %9 = load i32, ptr %8, align 8
  %10 = icmp uge i32 %6, %9
  br i1 %10, label %11, label %20

11:                                               ; preds = %1
  %12 = load ptr, ptr %3, align 8
  %13 = load ptr, ptr %3, align 8
  %14 = getelementptr inbounds %struct.struct_it8, ptr %13, i32 0, i32 1
  %15 = load i32, ptr %14, align 4
  %16 = call i32 (ptr, ptr, ...) @SynError(ptr noundef %12, ptr noundef @.str.81, i32 noundef %15)
  %17 = load ptr, ptr %3, align 8
  %18 = getelementptr inbounds %struct.struct_it8, ptr %17, i32 0, i32 3
  %19 = getelementptr inbounds [255 x %struct._Table], ptr %18, i64 0, i64 0
  store ptr %19, ptr %2, align 8
  br label %29

20:                                               ; preds = %1
  %21 = load ptr, ptr %3, align 8
  %22 = getelementptr inbounds %struct.struct_it8, ptr %21, i32 0, i32 3
  %23 = getelementptr inbounds [255 x %struct._Table], ptr %22, i64 0, i64 0
  %24 = load ptr, ptr %3, align 8
  %25 = getelementptr inbounds %struct.struct_it8, ptr %24, i32 0, i32 1
  %26 = load i32, ptr %25, align 4
  %27 = zext i32 %26 to i64
  %28 = getelementptr inbounds %struct._Table, ptr %23, i64 %27
  store ptr %28, ptr %2, align 8
  br label %29

29:                                               ; preds = %20, %11
  %30 = load ptr, ptr %2, align 8
  ret ptr %30
}

; Function Attrs: nounwind uwtable
define hidden ptr @cmsIT8GetProperty(ptr noundef %0, ptr noundef %1) #0 {
  %3 = alloca ptr, align 8
  %4 = alloca ptr, align 8
  %5 = alloca ptr, align 8
  %6 = alloca ptr, align 8
  %7 = alloca ptr, align 8
  store ptr %0, ptr %4, align 8
  store ptr %1, ptr %5, align 8
  %8 = load ptr, ptr %4, align 8
  store ptr %8, ptr %6, align 8
  %9 = load ptr, ptr %6, align 8
  %10 = call ptr @GetTable(ptr noundef %9)
  %11 = getelementptr inbounds %struct._Table, ptr %10, i32 0, i32 4
  %12 = load ptr, ptr %11, align 8
  %13 = load ptr, ptr %5, align 8
  %14 = call i32 @IsAvailableOnList(ptr noundef %12, ptr noundef %13, ptr noundef null, ptr noundef %7)
  %15 = icmp ne i32 %14, 0
  br i1 %15, label %16, label %20

16:                                               ; preds = %2
  %17 = load ptr, ptr %7, align 8
  %18 = getelementptr inbounds %struct._KeyVal, ptr %17, i32 0, i32 4
  %19 = load ptr, ptr %18, align 8
  store ptr %19, ptr %3, align 8
  br label %21

20:                                               ; preds = %2
  store ptr null, ptr %3, align 8
  br label %21

21:                                               ; preds = %20, %16
  %22 = load ptr, ptr %3, align 8
  ret ptr %22
}