; Function Attrs: nounwind uwtable
define hidden ptr @cmsIT8GetProperty(ptr nocapture noundef %0, ptr noundef %1) local_unnamed_addr #0 {
  %3 = getelementptr inbounds i8, ptr %0, i64 4
  %4 = load i32, ptr %3, align 4
  %5 = load i32, ptr %0, align 8
  %.not.i = icmp ult i32 %4, %5
  br i1 %.not.i, label %8, label %6

6:                                                ; preds = %2
  tail call void (ptr, ptr, ...) @SynError(ptr noundef nonnull %0, ptr noundef nonnull @.str.81, i32 noundef %4)
  %7 = getelementptr inbounds i8, ptr %0, i64 16
  br label %GetTable.exit

8:                                                ; preds = %2
  %9 = getelementptr inbounds i8, ptr %0, i64 16
  %10 = zext i32 %4 to i64
  %11 = getelementptr inbounds %struct._Table, ptr %9, i64 %10
  br label %GetTable.exit

GetTable.exit:                                    ; preds = %6, %8
  %.0.i = phi ptr [ %7, %6 ], [ %11, %8 ]
  %12 = getelementptr inbounds i8, ptr %.0.i, i64 1040
  %13 = load ptr, ptr %12, align 8
  %cond2941.i = icmp eq ptr %13, null
  br i1 %cond2941.i, label %IsAvailableOnList.exit.thread, label %.lr.ph.split.i.preheader

.lr.ph.split.i.preheader:                         ; preds = %GetTable.exit
  %14 = load i8, ptr %1, align 1
  %15 = icmp eq i8 %14, 35
  br i1 %15, label %IsAvailableOnList.exit.thread, label %.lr.ph.split.i

.lr.ph.split.ithread-pre-split:                   ; preds = %22
  %.pr = load i8, ptr %1, align 1
  br label %.lr.ph.split.i

.lr.ph.split.i:                                   ; preds = %.lr.ph.split.i.preheader, %.lr.ph.split.ithread-pre-split
  %16 = phi i8 [ %.pr, %.lr.ph.split.ithread-pre-split ], [ %14, %.lr.ph.split.i.preheader ]
  %.02130.i = phi ptr [ %23, %.lr.ph.split.ithread-pre-split ], [ %13, %.lr.ph.split.i.preheader ]
  %.not25.i = icmp eq i8 %16, 35
  br i1 %.not25.i, label %22, label %17

17:                                               ; preds = %.lr.ph.split.i
  %18 = getelementptr inbounds i8, ptr %.02130.i, i64 8
  %19 = load ptr, ptr %18, align 8
  %20 = tail call i32 @cmsstrcasecmp(ptr noundef nonnull %1, ptr noundef %19) #17
  %21 = icmp eq i32 %20, 0
  br i1 %21, label %IsAvailableOnList.exit, label %22

22:                                               ; preds = %17, %.lr.ph.split.i
  %23 = load ptr, ptr %.02130.i, align 8
  %cond.i = icmp eq ptr %23, null
  br i1 %cond.i, label %IsAvailableOnList.exit.thread, label %.lr.ph.split.ithread-pre-split, !llvm.loop !15

IsAvailableOnList.exit:                           ; preds = %17
  %24 = getelementptr inbounds i8, ptr %.02130.i, i64 32
  %25 = load ptr, ptr %24, align 8
  br label %IsAvailableOnList.exit.thread

IsAvailableOnList.exit.thread:                    ; preds = %22, %.lr.ph.split.i.preheader, %GetTable.exit, %IsAvailableOnList.exit
  %.0 = phi ptr [ %25, %IsAvailableOnList.exit ], [ null, %GetTable.exit ], [ null, %.lr.ph.split.i.preheader ], [ null, %22 ]
  ret ptr %.0
}